; Function Attrs: null_pointer_is_valid sspstrong uwtable
define internal i32 @srvsvc_dissect_NetGetFileSecurity_request(ptr noundef %0, i32 noundef %1, ptr noundef %2, ptr noundef %3, ptr noundef initializes((72, 80)) %4, ptr noundef %5) #0 {
  %7 = alloca ptr, align 8
  %8 = getelementptr inbounds nuw i8, ptr %4, i64 72
  store ptr @.str.1250, ptr %8, align 8
  %9 = load i32, ptr @hf_srvsvc_srvsvc_NetGetFileSecurity_server_unc, align 4
  %10 = tail call i32 @dissect_ndr_toplevel_pointer(ptr noundef %0, i32 noundef %1, ptr noundef %2, ptr noundef %3, ptr noundef %4, ptr noundef %5, ptr noundef nonnull @srvsvc_dissect_element_NetGetFileSecurity_server_unc_, i32 noundef 2, ptr noundef nonnull @.str.1266, i32 noundef %9)
  %11 = tail call i32 @dissect_deferred_pointers(ptr noundef %2, ptr noundef %0, i32 noundef %10, ptr noundef %4, ptr noundef %5)
  %12 = load i32, ptr @hf_srvsvc_srvsvc_NetGetFileSecurity_share, align 4
  %13 = tail call i32 @dissect_ndr_toplevel_pointer(ptr noundef %0, i32 noundef %11, ptr noundef %2, ptr noundef %3, ptr noundef %4, ptr noundef %5, ptr noundef nonnull @srvsvc_dissect_element_NetGetFileSecurity_share_, i32 noundef 2, ptr noundef nonnull @.str.1116, i32 noundef %12)
  %14 = tail call i32 @dissect_deferred_pointers(ptr noundef %2, ptr noundef %0, i32 noundef %13, ptr noundef %4, ptr noundef %5)
  call void @llvm.lifetime.start.p0(i64 8, ptr nonnull %7) #4
  %15 = load i32, ptr @hf_srvsvc_srvsvc_NetGetFileSecurity_file, align 4
  %16 = call i32 @dissect_ndr_cvstring(ptr noundef %0, i32 noundef %14, ptr noundef %2, ptr noundef %3, ptr noundef %4, ptr noundef %5, i32 noundef 2, i32 noundef %15, i1 noundef zeroext false, ptr noundef nonnull %7)
  %17 = load ptr, ptr %7, align 8
  call void (ptr, ptr, ...) @proto_item_append_text(ptr noundef %3, ptr noundef nonnull @.str.1102, ptr noundef %17)
  call void @llvm.lifetime.end.p0(i64 8, ptr nonnull %7) #4
  %18 = call i32 @dissect_deferred_pointers(ptr noundef %2, ptr noundef %0, i32 noundef %16, ptr noundef %4, ptr noundef %5)
  %19 = getelementptr i8, ptr %4, i64 25
  %.val = load i8, ptr %19, align 1, !range !6, !noundef !7
  %20 = trunc nuw i8 %.val to i1
  br i1 %20, label %srvsvc_dissect_element_NetGetFileSecurity_securityinformation.exit, label %21

21:                                               ; preds = %6
  %22 = call i32 @dissect_security_information_mask(ptr noundef %0, ptr noundef %3, i32 noundef %18)
  br label %srvsvc_dissect_element_NetGetFileSecurity_securityinformation.exit

srvsvc_dissect_element_NetGetFileSecurity_securityinformation.exit: ; preds = %6, %21
  %.0.i.i = phi i32 [ %22, %21 ], [ %18, %6 ]
  %23 = call i32 @dissect_deferred_pointers(ptr noundef %2, ptr noundef %0, i32 noundef %.0.i.i, ptr noundef %4, ptr noundef %5)
  ret i32 %23
}